; Function Attrs: mustprogress nofree norecurse nosync nounwind null_pointer_is_valid sspstrong willreturn memory(argmem: read) uwtable
define internal range(i32 0, 2) i32 @quic_crypto_retrans_equal(ptr noundef readonly captures(none) %0, ptr noundef readonly captures(none) %1) #11 {
  %3 = getelementptr inbounds nuw i8, ptr %0, i64 12
  %4 = load i32, ptr %3, align 4
  %5 = getelementptr inbounds nuw i8, ptr %1, i64 12
  %6 = load i32, ptr %5, align 4
  %7 = icmp eq i32 %4, %6
  br i1 %7, label %8, label %19

8:                                                ; preds = %2
  %9 = load i64, ptr %0, align 8
  %10 = load i64, ptr %1, align 8
  %11 = icmp eq i64 %9, %10
  br i1 %11, label %12, label %19

12:                                               ; preds = %8
  %13 = getelementptr inbounds nuw i8, ptr %0, i64 8
  %14 = load i32, ptr %13, align 8
  %15 = getelementptr inbounds nuw i8, ptr %1, i64 8
  %16 = load i32, ptr %15, align 8
  %17 = icmp eq i32 %14, %16
  %18 = zext i1 %17 to i32
  br label %19

19:                                               ; preds = %12, %8, %2
  %20 = phi i32 [ 0, %8 ], [ 0, %2 ], [ %18, %12 ]
  ret i32 %20
}